target datalayout = "e-m:e-p270:32:32-p271:32:32-p272:64:64-i64:64-i128:128-f80:128-n8:16:32:64-S128"
target triple = "x86_64-unknown-linux-gnu"

; Function Attrs: mustprogress uwtable
define void @_ZN6icu_7512ByteSinkUtil23appendNonEmptyUnchangedEPKhiRNS_8ByteSinkEjPNS_5EditsE(ptr noundef %s, i32 noundef %length, ptr noundef nonnull align 8 dereferenceable(8) %sink, i32 noundef %options, ptr noundef %edits) #1 align 2 {
entry:
  %s.addr = alloca ptr, align 8
  %length.addr = alloca i32, align 4
  %sink.addr = alloca ptr, align 8
  %options.addr = alloca i32, align 4
  %edits.addr = alloca ptr, align 8
  store ptr %s, ptr %s.addr, align 8
  store i32 %length, ptr %length.addr, align 4
  store ptr %sink, ptr %sink.addr, align 8
  store i32 %options, ptr %options.addr, align 4
  store ptr %edits, ptr %edits.addr, align 8
  %0 = load ptr, ptr %edits.addr, align 8
  %cmp = icmp ne ptr %0, null
  br i1 %cmp, label %if.then, label %if.end

if.then:                                          ; preds = %entry
  %1 = load ptr, ptr %edits.addr, align 8
  %2 = load i32, ptr %length.addr, align 4
  call void @_ZN6icu_755Edits12addUnchangedEi(ptr noundef nonnull align 8 dereferenceable(232) %1, i32 noundef %2)
  br label %if.end

if.end:                                           ; preds = %if.then, %entry
  %3 = load i32, ptr %options.addr, align 4
  %and = and i32 %3, 16384
  %cmp1 = icmp eq i32 %and, 0
  br i1 %cmp1, label %if.then2, label %if.end3

if.then2:                                         ; preds = %if.end
  %4 = load ptr, ptr %sink.addr, align 8
  %5 = load ptr, ptr %s.addr, align 8
  %6 = load i32, ptr %length.addr, align 4
  %vtable = load ptr, ptr %4, align 8
  %vfn = getelementptr inbounds ptr, ptr %vtable, i64 2
  %7 = load ptr, ptr %vfn, align 8
  call void %7(ptr noundef nonnull align 8 dereferenceable(8) %4, ptr noundef %5, i32 noundef %6)
  br label %if.end3

if.end3:                                          ; preds = %if.then2, %if.end
  ret void
}