; Function Attrs: mustprogress uwtable
define void @_ZN6icu_7512ByteSinkUtil23appendNonEmptyUnchangedEPKhiRNS_8ByteSinkEjPNS_5EditsE(ptr noundef %s, i32 noundef %length, ptr noundef nonnull align 8 dereferenceable(8) %sink, i32 noundef %options, ptr noundef %edits) local_unnamed_addr #1 align 2 {
entry:
  %cmp.not = icmp eq ptr %edits, null
  br i1 %cmp.not, label %if.end, label %if.then

if.then:                                          ; preds = %entry
  tail call void @_ZN6icu_755Edits12addUnchangedEi(ptr noundef nonnull align 8 dereferenceable(232) %edits, i32 noundef %length)
  br label %if.end

if.end:                                           ; preds = %if.then, %entry
  %and = and i32 %options, 16384
  %cmp1 = icmp eq i32 %and, 0
  br i1 %cmp1, label %if.then2, label %if.end3

if.then2:                                         ; preds = %if.end
  %vtable = load ptr, ptr %sink, align 8
  %vfn = getelementptr inbounds i8, ptr %vtable, i64 16
  %0 = load ptr, ptr %vfn, align 8
  tail call void %0(ptr noundef nonnull align 8 dereferenceable(8) %sink, ptr noundef %s, i32 noundef %length)
  br label %if.end3

if.end3:                                          ; preds = %if.then2, %if.end
  ret void
}